0000000000000dd0 P _ZNK11__gnu_debug16_Error_formatter17_M_get_max_lengthEv
0000000000000de0 P _ZNSolsEi
0000000000000df0 P _ZdlPv
0000000000000e00 P _ZN11__gnu_debug19_Safe_iterator_base9_M_detachEv
0000000000000e10 P _ZNSt8ios_base4InitC1Ev
0000000000000e20 P _ZN11__gnu_debug19_Safe_iterator_base9_M_attachEPNS_19_Safe_sequence_baseEb
0000000000000e30 P __libc_start_main
0000000000000e40 P __cxa_atexit
0000000000000e50 P _ZN11__gnu_debug19_Safe_sequence_base13_M_detach_allEv
0000000000000e60 P _ZNSt8ios_base4InitD1Ev
0000000000000e70 P _ZStlsISt11char_traitsIcEERSt13basic_ostreamIcT_ES5_PKc
0000000000000e80 P _mcleanup
0000000000000e90 P _ZNK11__gnu_debug16_Error_formatter10_M_messageENS_13_Debug_msg_idE
0000000000000ea0 P _ZNK11__gnu_debug19_Safe_iterator_base11_M_singularEv
0000000000000eb0 P mcount
0000000000000ec0 P __monstartup
0000000000000ed0 P _ZNSolsEPFRSoS_E
0000000000000ee0 P _ZNK11__gnu_debug19_Safe_iterator_base14_M_can_compareERKS0_
0000000000000ef0 P _ZSt17__throw_bad_allocv
0000000000000f00 P _ZSt4endlIcSt11char_traitsIcEERSt13basic_ostreamIT_T0_ES6_
0000000000000f10 P __gxx_personality_v0
0000000000000f20 P _ZNK11__gnu_debug16_Error_formatter8_M_errorEv
0000000000000f30 P _Znwm
0000000000000f40 P _Unwind_Resume
0000000000000f50 P __dynsym_end
0000000000000f80 T __gmon_start__
0000000000001086 T main
0000000000001239 t _Z41__static_initialization_and_destruction_0ii
000000000000127b t _GLOBAL__sub_I_main
0000000000001296 w _ZN11__gnu_debug16_Error_formatter10_ParameterC1Ev
00000000000012cc w _ZN11__gnu_debug16_Error_formatterC1EPKcm
000000000000138e w _ZN11__gnu_debug16_Error_formatter5_M_atEPKcm
00000000000013c4 w _ZnwmPv
00000000000013e0 w _ZN11__gnu_debug19_Safe_iterator_baseC1EPKNS_19_Safe_sequence_baseEb
0000000000001442 w _ZN11__gnu_debug19_Safe_iterator_baseD1Ev
0000000000001462 w _ZN11__gnu_debug19_Safe_sequence_baseC2Ev
0000000000001498 w _ZN11__gnu_debug19_Safe_sequence_baseD1Ev
00000000000014b8 w _ZN11__gnu_debug14_Safe_iteratorIN9__gnu_cxx17__normal_iteratorIPiNSt9__cxx19986vectorIiSaIiEEEEENSt7__debug6vectorIiS6_EEED1Ev
00000000000014d8 w _ZNSaIiEC2Ev
00000000000014f8 w _ZNSaIiED2Ev
0000000000001518 w _ZNKSt16initializer_listIiE4sizeEv
0000000000001534 w _ZN11__gnu_debug14_Safe_sequenceINSt7__debug6vectorIiSaIiEEEEC1Ev
0000000000001554 w _ZN11__gnu_debug14_Safe_sequenceINSt7__debug6vectorIiSaIiEEEED2Ev
0000000000001574 w _ZNSt7__debug6vectorIiSaIiEEC2ESt16initializer_listIiERKS1_
00000000000015dc w _ZNSt7__debug6vectorIiSaIiEED2Ev
000000000000160c w _ZNSt7__debug6vectorIiSaIiEE5beginEv
000000000000164e w _ZNSt7__debug6vectorIiSaIiEE3endEv
0000000000001690 w _ZN11__gnu_debugneIN9__gnu_cxx17__normal_iteratorIPiNSt9__cxx19986vectorIiSaIiEEEEENSt7__debug6vectorIiS6_EEEEbRKNS_14_Safe_iteratorIT_T0_EESH_
0000000000001802 w _ZN11__gnu_debug14_Safe_iteratorIN9__gnu_cxx17__normal_iteratorIPiNSt9__cxx19986vectorIiSaIiEEEEENSt7__debug6vectorIiS6_EEEppEv
000000000000189a w _ZNK11__gnu_debug14_Safe_iteratorIN9__gnu_cxx17__normal_iteratorIPiNSt9__cxx19986vectorIiSaIiEEEEENSt7__debug6vectorIiS6_EEEdeEv
000000000000192c w _ZN9__gnu_cxx13new_allocatorIiEC1Ev
0000000000001940 w _ZN9__gnu_cxx13new_allocatorIiED1Ev
0000000000001954 w _ZNKSt16initializer_listIiE5beginEv
000000000000196e w _ZNKSt16initializer_listIiE3endEv
00000000000019aa w _ZNSt9__cxx19986vectorIiSaIiEEC2ESt16initializer_listIiERKS1_
0000000000001a46 w _ZNSt9__cxx19986vectorIiSaIiEED1Ev
0000000000001a8e w _ZNSt9__cxx19986vectorIiSaIiEE5beginEv
0000000000001ab8 w _ZN11__gnu_debug14_Safe_iteratorIN9__gnu_cxx17__normal_iteratorIPiNSt9__cxx19986vectorIiSaIiEEEEENSt7__debug6vectorIiS6_EEEC2ERKS8_PKSB_
0000000000001b96 w _ZNSt9__cxx19986vectorIiSaIiEE3endEv
0000000000001bc4 w _ZN9__gnu_cxxeqIPiNSt9__cxx19986vectorIiSaIiEEEEEbRKNS_17__normal_iteratorIT_T0_EESB_
0000000000001c06 w _ZNK11__gnu_debug16_Error_formatter11_M_iteratorINS_14_Safe_iteratorIN9__gnu_cxx17__normal_iteratorIPiNSt9__cxx19986vectorIiSaIiEEEEENSt7__debug6vectorIiS8_EEEEEERKS0_RKT_PKc
0000000000001cd2 w _ZNK11__gnu_debug14_Safe_iteratorIN9__gnu_cxx17__normal_iteratorIPiNSt9__cxx19986vectorIiSaIiEEEEENSt7__debug6vectorIiS6_EEE4baseEv
0000000000001ced w _ZN9__gnu_cxxneIPiNSt9__cxx19986vectorIiSaIiEEEEEbRKNS_17__normal_iteratorIT_T0_EESB_
0000000000001d2e w _ZNK11__gnu_debug14_Safe_iteratorIN9__gnu_cxx17__normal_iteratorIPiNSt9__cxx19986vectorIiSaIiEEEEENSt7__debug6vectorIiS6_EEE16_M_incrementableEv
0000000000001d74 w _ZN9__gnu_cxx17__normal_iteratorIPiNSt9__cxx19986vectorIiSaIiEEEEppEv
0000000000001d9e w _ZNK11__gnu_debug14_Safe_iteratorIN9__gnu_cxx17__normal_iteratorIPiNSt9__cxx19986vectorIiSaIiEEEEENSt7__debug6vectorIiS6_EEE18_M_dereferenceableEv
0000000000001df6 w _ZNK9__gnu_cxx17__normal_iteratorIPiNSt9__cxx19986vectorIiSaIiEEEEdeEv
0000000000001e10 w _ZNSt9__cxx199812_Vector_baseIiSaIiEE12_Vector_implD2Ev
0000000000001e30 w _ZNSt9__cxx199812_Vector_baseIiSaIiEEC2ERKS1_
0000000000001e5a w _ZNSt9__cxx199812_Vector_baseIiSaIiEED1Ev
0000000000001eae w _ZNSt9__cxx19986vectorIiSaIiEE19_M_range_initializeIPKiEEvT_S6_St20forward_iterator_tag
0000000000001f48 w _ZNSt9__cxx199812_Vector_baseIiSaIiEE19_M_get_Tp_allocatorEv
0000000000001f5f w _ZSt8_DestroyIPiiEvT_S1_RSaIT0_E
0000000000001f8e w _ZN9__gnu_cxx17__normal_iteratorIPiNSt9__cxx19986vectorIiSaIiEEEEC1ERKS1_
0000000000001fb4 w _ZNK11__gnu_debug14_Safe_iteratorIN9__gnu_cxx17__normal_iteratorIPiNSt9__cxx19986vectorIiSaIiEEEEENSt7__debug6vectorIiS6_EEE11_M_constantEv
0000000000001fcc w _ZNK9__gnu_cxx17__normal_iteratorIPiNSt9__cxx19986vectorIiSaIiEEEE4baseEv
0000000000001fe4 w _ZN11__gnu_debug16_Error_formatter10_ParameterC1IN9__gnu_cxx17__normal_iteratorIPiNSt9__cxx19986vectorIiSaIiEEEEENSt7__debug6vectorIiS8_EEEERKNS_14_Safe_iteratorIT_T0_EEPKcNS0_12_Is_iteratorE
00000000000020f2 w _ZNK11__gnu_debug14_Safe_iteratorIN9__gnu_cxx17__normal_iteratorIPiNSt9__cxx19986vectorIiSaIiEEEEENSt7__debug6vectorIiS6_EEE9_M_is_endEv
0000000000002148 w _ZNK11__gnu_debug14_Safe_iteratorIN9__gnu_cxx17__normal_iteratorIPiNSt9__cxx19986vectorIiSaIiEEEEENSt7__debug6vectorIiS6_EEE18_M_is_before_beginEv
0000000000002168 w _ZNSt9__cxx199812_Vector_baseIiSaIiEE12_Vector_implC1ERKS1_
00000000000021b6 w _ZNSt9__cxx199812_Vector_baseIiSaIiEE13_M_deallocateEPim
00000000000021ef w _ZSt8distanceIPKiENSt15iterator_traitsIT_E15difference_typeES3_S3_
0000000000002234 w _ZNSt9__cxx199812_Vector_baseIiSaIiEE11_M_allocateEm
000000000000226c w _ZSt22__uninitialized_copy_aIPKiPiiET0_T_S4_S3_RSaIT1_E
00000000000022a2 w _ZSt8_DestroyIPiEvT_S1_
00000000000022cc w _ZNK11__gnu_debug14_Safe_iteratorIN9__gnu_cxx17__normal_iteratorIPiNSt9__cxx19986vectorIiSaIiEEEEENSt7__debug6vectorIiS6_EEE15_M_get_sequenceEv
00000000000022fe w _ZNK11__gnu_debug14_Safe_iteratorIN9__gnu_cxx17__normal_iteratorIPiNSt9__cxx19986vectorIiSaIiEEEEENSt7__debug6vectorIiS6_EEE11_M_is_beginEv
0000000000002354 w _ZNSt7__debug6vectorIiSaIiEE7_M_baseEv
000000000000236b w _ZN11__gnu_debug18_BeforeBeginHelperINSt7__debug6vectorIiSaIiEEEE5_S_IsIN9__gnu_cxx17__normal_iteratorIPiNSt9__cxx19986vectorIiS3_EEEEEEbRKNS_14_Safe_iteratorIT_S4_EE
0000000000002384 w _ZNSaIiEC1ERKS_
00000000000023ae w _ZNSt16allocator_traitsISaIiEE10deallocateERS0_Pim
00000000000023e0 w _ZSt19__iterator_categoryIPKiENSt15iterator_traitsIT_E17iterator_categoryERKS3_
00000000000023f3 w _ZSt10__distanceIPKiENSt15iterator_traitsIT_E15difference_typeES3_S3_St26random_access_iterator_tag
000000000000241c w _ZNSt16allocator_traitsISaIiEE8allocateERS0_m
000000000000244b w _ZSt18uninitialized_copyIPKiPiET0_T_S4_S3_
0000000000002481 w _ZNSt12_Destroy_auxILb1EE9__destroyIPiEEvT_S3_
0000000000002498 w _ZN9__gnu_cxx13new_allocatorIiEC1ERKS1_
00000000000024b0 w _ZN9__gnu_cxx13new_allocatorIiE10deallocateEPim
00000000000024d8 w _ZN9__gnu_cxx13new_allocatorIiE8allocateEmPKv
000000000000251f w _ZNSt20__uninitialized_copyILb0EE13__uninit_copyIPKiPiEET0_T_S6_S5_
000000000000257a w _ZNK9__gnu_cxx13new_allocatorIiE8max_sizeEv
0000000000002597 w _ZSt11__addressofIiEPT_RS0_
00000000000025ae w _ZSt7forwardIRKiEOT_RNSt16remove_referenceIS2_E4typeE
00000000000025c5 w _ZSt10_ConstructIiIRKiEEvPT_DpOT0_
0000000000002610 T __libc_csu_init
0000000000002680 T __libc_csu_fini
0000000000002690 T atexit
00000000000026aa T __sym_end
